; ModuleID = '28/331.c'
source_filename = "28/331.c"
target datalayout = "e-m:e-p270:32:32-p271:32:32-p272:64:64-i64:64-f80:128-n8:16:32:64-S128"
target triple = "x86_64-pc-linux-gnu"

@.str = private unnamed_addr constant [4 x i8] c"%d,\00", align 1
@.str.1 = private unnamed_addr constant [3 x i8] c"%d\00", align 1

; Function Attrs: noinline nounwind uwtable
define dso_local void @main() #0 {
  %1 = alloca [10000 x i8], align 16
  %2 = alloca i32, align 4
  %3 = alloca i32, align 4
  %4 = alloca i8*, align 8
  store i32 0, i32* %3, align 4
  %5 = getelementptr inbounds [10000 x i8], [10000 x i8]* %1, i64 0, i64 0
  store i8* %5, i8** %4, align 8
  %6 = getelementptr inbounds [10000 x i8], [10000 x i8]* %1, i64 0, i64 0
  %7 = call i32 (i8*, ...) bitcast (i32 (...)* @gets to i32 (i8*, ...)*)(i8* %6)
  store i32 0, i32* %2, align 4
  br label %8

8:                                                ; preds = %44, %0
  %9 = load i32, i32* %2, align 4
  %10 = sext i32 %9 to i64
  %11 = getelementptr inbounds [10000 x i8], [10000 x i8]* %1, i64 0, i64 %10
  %12 = load i8, i8* %11, align 1
  %13 = sext i8 %12 to i32
  %14 = icmp ne i32 %13, 0
  br i1 %14, label %15, label %47

15:                                               ; preds = %8
  %16 = load i32, i32* %2, align 4
  %17 = sext i32 %16 to i64
  %18 = getelementptr inbounds [10000 x i8], [10000 x i8]* %1, i64 0, i64 %17
  %19 = load i8, i8* %18, align 1
  %20 = sext i8 %19 to i32
  %21 = icmp ne i32 %20, 32
  br i1 %21, label %22, label %25

22:                                               ; preds = %15
  %23 = load i32, i32* %3, align 4
  %24 = add nsw i32 %23, 1
  store i32 %24, i32* %3, align 4
  br label %25

25:                                               ; preds = %22, %15
  %26 = load i32, i32* %2, align 4
  %27 = sext i32 %26 to i64
  %28 = getelementptr inbounds [10000 x i8], [10000 x i8]* %1, i64 0, i64 %27
  %29 = load i8, i8* %28, align 1
  %30 = sext i8 %29 to i32
  %31 = icmp eq i32 %30, 32
  br i1 %31, label %32, label %43

32:                                               ; preds = %25
  %33 = load i32, i32* %2, align 4
  %34 = sub nsw i32 %33, 1
  %35 = sext i32 %34 to i64
  %36 = getelementptr inbounds [10000 x i8], [10000 x i8]* %1, i64 0, i64 %35
  %37 = load i8, i8* %36, align 1
  %38 = sext i8 %37 to i32
  %39 = icmp ne i32 %38, 32
  br i1 %39, label %40, label %43

40:                                               ; preds = %32
  %41 = load i32, i32* %3, align 4
  %42 = call i32 (i8*, ...) @printf(i8* getelementptr inbounds ([4 x i8], [4 x i8]* @.str, i64 0, i64 0), i32 %41)
  store i32 0, i32* %3, align 4
  br label %43

43:                                               ; preds = %40, %32, %25
  br label %44

44:                                               ; preds = %43
  %45 = load i32, i32* %2, align 4
  %46 = add nsw i32 %45, 1
  store i32 %46, i32* %2, align 4
  br label %8

47:                                               ; preds = %8
  %48 = load i32, i32* %3, align 4
  %49 = call i32 (i8*, ...) @printf(i8* getelementptr inbounds ([3 x i8], [3 x i8]* @.str.1, i64 0, i64 0), i32 %48)
  ret void
}

declare dso_local i32 @gets(...) #1

declare dso_local i32 @printf(i8*, ...) #1


!llvm.module.flags = !{!0}
!llvm.ident = !{!1}

!0 = !{i32 1, !"wchar_size", i32 4}
!1 = !{!"clang version 10.0.0-4ubuntu1 "}
